target datalayout = "e-m:e-p270:32:32-p271:32:32-p272:64:64-i64:64-i128:128-f80:128-n8:16:32:64-S128"
target triple = "x86_64-pc-linux-gnu"

%struct.AVProbeData = type { ptr, ptr, i32, ptr }

@.str.3 = private unnamed_addr constant [4 x i8] c"ea3\00", align 1
@.str.4 = private unnamed_addr constant [4 x i8] c"EA3\00", align 1

; Function Attrs: nounwind uwtable
define internal i32 @oma_read_probe(ptr noundef %0) #0 {
  %2 = alloca i32, align 4
  %3 = alloca ptr, align 8
  %4 = alloca ptr, align 8
  %5 = alloca i32, align 4
  %6 = alloca i32, align 4
  store ptr %0, ptr %3, align 8, !tbaa !4
  call void @llvm.lifetime.start.p0(i64 8, ptr %4) #9
  %7 = load ptr, ptr %3, align 8, !tbaa !4
  %8 = getelementptr inbounds nuw %struct.AVProbeData, ptr %7, i32 0, i32 1
  %9 = load ptr, ptr %8, align 8, !tbaa !9
  store ptr %9, ptr %4, align 8, !tbaa !13
  call void @llvm.lifetime.start.p0(i64 4, ptr %5) #9
  store i32 0, ptr %5, align 4, !tbaa !14
  %10 = load ptr, ptr %3, align 8, !tbaa !4
  %11 = getelementptr inbounds nuw %struct.AVProbeData, ptr %10, i32 0, i32 2
  %12 = load i32, ptr %11, align 8, !tbaa !15
  %13 = icmp sge i32 %12, 10
  br i1 %13, label %14, label %21

14:                                               ; preds = %1
  %15 = load ptr, ptr %4, align 8, !tbaa !13
  %16 = call i32 @ff_id3v2_match(ptr noundef %15, ptr noundef @.str.3)
  %17 = icmp ne i32 %16, 0
  br i1 %17, label %18, label %21

18:                                               ; preds = %14
  %19 = load ptr, ptr %4, align 8, !tbaa !13
  %20 = call i32 @ff_id3v2_tag_len(ptr noundef %19)
  store i32 %20, ptr %5, align 4, !tbaa !14
  br label %21

21:                                               ; preds = %18, %14, %1
  %22 = load ptr, ptr %3, align 8, !tbaa !4
  %23 = getelementptr inbounds nuw %struct.AVProbeData, ptr %22, i32 0, i32 2
  %24 = load i32, ptr %23, align 8, !tbaa !15
  %25 = load i32, ptr %5, align 4, !tbaa !14
  %26 = add i32 %25, 5
  %27 = icmp ult i32 %24, %26
  br i1 %27, label %28, label %32

28:                                               ; preds = %21
  %29 = load i32, ptr %5, align 4, !tbaa !14
  %30 = icmp ne i32 %29, 0
  %31 = select i1 %30, i32 25, i32 0
  store i32 %31, ptr %2, align 4
  store i32 1, ptr %6, align 4
  br label %53

32:                                               ; preds = %21
  %33 = load i32, ptr %5, align 4, !tbaa !14
  %34 = load ptr, ptr %4, align 8, !tbaa !13
  %35 = zext i32 %33 to i64
  %36 = getelementptr inbounds nuw i8, ptr %34, i64 %35
  store ptr %36, ptr %4, align 8, !tbaa !13
  %37 = load ptr, ptr %4, align 8, !tbaa !13
  %38 = call i32 @memcmp(ptr noundef %37, ptr noundef @.str.4, i64 noundef 3) #10
  %39 = icmp ne i32 %38, 0
  br i1 %39, label %52, label %40

40:                                               ; preds = %32
  %41 = load ptr, ptr %4, align 8, !tbaa !13
  %42 = getelementptr inbounds i8, ptr %41, i64 4
  %43 = load i8, ptr %42, align 1, !tbaa !16
  %44 = icmp ne i8 %43, 0
  br i1 %44, label %52, label %45

45:                                               ; preds = %40
  %46 = load ptr, ptr %4, align 8, !tbaa !13
  %47 = getelementptr inbounds i8, ptr %46, i64 5
  %48 = load i8, ptr %47, align 1, !tbaa !16
  %49 = zext i8 %48 to i32
  %50 = icmp eq i32 %49, 96
  br i1 %50, label %51, label %52

51:                                               ; preds = %45
  store i32 100, ptr %2, align 4
  store i32 1, ptr %6, align 4
  br label %53

52:                                               ; preds = %45, %40, %32
  store i32 0, ptr %2, align 4
  store i32 1, ptr %6, align 4
  br label %53

53:                                               ; preds = %52, %51, %28
  call void @llvm.lifetime.end.p0(i64 4, ptr %5) #9
  call void @llvm.lifetime.end.p0(i64 8, ptr %4) #9
  %54 = load i32, ptr %2, align 4
  ret i32 %54
}