; Function Attrs: nounwind uwtable
define internal range(i32 0, 101) i32 @oma_read_probe(ptr noundef readonly captures(none) %0) #0 {
  %2 = getelementptr inbounds nuw i8, ptr %0, i64 8
  %3 = load ptr, ptr %2, align 8, !tbaa !4
  %4 = getelementptr inbounds nuw i8, ptr %0, i64 16
  %5 = load i32, ptr %4, align 8, !tbaa !11
  %6 = icmp sgt i32 %5, 9
  br i1 %6, label %7, label %11

7:                                                ; preds = %1
  %8 = tail call i32 @ff_id3v2_match(ptr noundef %3, ptr noundef nonnull @.str.3) #9
  %.not = icmp eq i32 %8, 0
  br i1 %.not, label %11, label %9

9:                                                ; preds = %7
  %10 = tail call i32 @ff_id3v2_tag_len(ptr noundef %3) #9
  br label %11

11:                                               ; preds = %9, %7, %1
  %.0 = phi i32 [ %10, %9 ], [ 0, %7 ], [ 0, %1 ]
  %12 = load i32, ptr %4, align 8, !tbaa !11
  %13 = add i32 %.0, 5
  %14 = icmp ult i32 %12, %13
  br i1 %14, label %15, label %17

15:                                               ; preds = %11
  %.not15 = icmp eq i32 %.0, 0
  %16 = select i1 %.not15, i32 0, i32 25
  br label %28

17:                                               ; preds = %11
  %18 = zext i32 %.0 to i64
  %19 = getelementptr inbounds nuw i8, ptr %3, i64 %18
  %bcmp = tail call i32 @bcmp(ptr noundef nonnull dereferenceable(3) %19, ptr noundef nonnull dereferenceable(3) @.str.4, i64 3)
  %.not13 = icmp eq i32 %bcmp, 0
  br i1 %.not13, label %20, label %27

20:                                               ; preds = %17
  %21 = getelementptr inbounds nuw i8, ptr %19, i64 4
  %22 = load i8, ptr %21, align 1, !tbaa !12
  %.not14 = icmp eq i8 %22, 0
  br i1 %.not14, label %23, label %27

23:                                               ; preds = %20
  %24 = getelementptr inbounds nuw i8, ptr %19, i64 5
  %25 = load i8, ptr %24, align 1, !tbaa !12
  %26 = icmp eq i8 %25, 96
  br i1 %26, label %28, label %27

27:                                               ; preds = %23, %20, %17
  br label %28

28:                                               ; preds = %23, %27, %15
  %.012 = phi i32 [ %16, %15 ], [ 0, %27 ], [ 100, %23 ]
  ret i32 %.012
}